; Function Attrs: mustprogress uwtable
define dso_local noundef ptr @_ZN4Luau9TypeArena9freshTypeENS_9TypeLevelE(ptr noundef nonnull align 8 dereferenceable(88) %0, i64 %1) local_unnamed_addr #1 align 2 personality ptr @__gxx_personality_v0 {
  %.sroa.1.i = alloca [48 x i8], align 8
  %3 = alloca %"struct.Luau::FreeType", align 8
  call void @_ZN4Luau8FreeTypeC1ENS_9TypeLevelE(ptr noundef nonnull align 8 dereferenceable(48) %3, i64 %1)
  call void @llvm.lifetime.start.p0(i64 48, ptr nonnull %.sroa.1.i)
  %4 = getelementptr inbounds nuw i8, ptr %0, i64 32
  %5 = load i64, ptr %4, align 8
  %6 = icmp ugt i64 %5, 80
  br i1 %6, label %7, label %_ZN4Luau14TypedAllocatorINS_4TypeEE8allocateIJNS_8FreeTypeEEEEPS1_DpOT_.exit

7:                                                ; preds = %2
  call void @_ZN4Luau14TypedAllocatorINS_4TypeEE11appendBlockEv(ptr noundef nonnull align 8 dereferenceable(40) %0)
  %.pre.i = load i64, ptr %4, align 8
  br label %_ZN4Luau14TypedAllocatorINS_4TypeEE8allocateIJNS_8FreeTypeEEEEPS1_DpOT_.exit

_ZN4Luau14TypedAllocatorINS_4TypeEE8allocateIJNS_8FreeTypeEEEEPS1_DpOT_.exit: ; preds = %2, %7
  %8 = phi i64 [ %.pre.i, %7 ], [ %5, %2 ]
  %9 = getelementptr inbounds nuw i8, ptr %0, i64 16
  %10 = load ptr, ptr %9, align 8
  %11 = getelementptr inbounds i8, ptr %10, i64 -8
  %12 = load ptr, ptr %11, align 8
  %13 = getelementptr inbounds %"struct.Luau::Type", ptr %12, i64 %8
  call void @llvm.memcpy.p0.p0.i64(ptr noundef nonnull align 8 dereferenceable(48) %.sroa.1.i, ptr noundef nonnull align 8 dereferenceable(48) %3, i64 48, i1 false)
  store i32 2, ptr %13, align 8
  %14 = getelementptr inbounds nuw i8, ptr %13, i64 8
  call void @llvm.memcpy.p0.p0.i64(ptr noundef nonnull align 8 dereferenceable(48) %14, ptr noundef nonnull align 8 dereferenceable(48) %.sroa.1.i, i64 48, i1 false)
  %15 = getelementptr inbounds nuw i8, ptr %13, i64 344
  store i8 0, ptr %15, align 8
  %16 = getelementptr inbounds nuw i8, ptr %13, i64 384
  store i8 0, ptr %16, align 8
  %17 = getelementptr inbounds nuw i8, ptr %13, i64 392
  store ptr null, ptr %17, align 8
  %18 = load i64, ptr %4, align 8
  %19 = add i64 %18, 1
  store i64 %19, ptr %4, align 8
  call void @llvm.lifetime.end.p0(i64 48, ptr nonnull %.sroa.1.i)
  %20 = call noundef ptr @_ZN4Luau9asMutableEPKNS_4TypeE(ptr noundef nonnull %13)
  %21 = getelementptr inbounds nuw i8, ptr %20, i64 392
  store ptr %0, ptr %21, align 8
  ret ptr %13
}